target datalayout = "e-m:e-p270:32:32-p271:32:32-p272:64:64-i64:64-i128:128-f80:128-n8:16:32:64-S128"
target triple = "x86_64-pc-linux-gnu"

%struct.archive_write = type { %struct.archive, i32, i64, i64, ptr, i64, ptr, ptr, ptr, ptr, ptr, i32, i32, ptr, ptr, ptr, ptr, ptr, ptr, ptr, ptr, ptr, ptr, ptr, ptr, ptr, ptr }
%struct.archive = type { i32, i32, ptr, i32, ptr, i32, i32, ptr, %struct.archive_string, ptr, i32, i32, ptr, ptr, i64, i64, i64, i8, i64 }
%struct.archive_string = type { ptr, i64, i64 }
%struct.archive_write_filter = type { i64, ptr, ptr, ptr, ptr, ptr, ptr, ptr, ptr, ptr, ptr, i32, i32, i32, i32 }
%struct.archive_none = type { i64, i64, ptr, ptr }

@.str.14 = private unnamed_addr constant [14 x i8] c"write overrun\00", align 1

; Function Attrs: nounwind uwtable
define internal i32 @archive_write_client_write(ptr noundef %0, ptr noundef %1, i64 noundef %2) #0 {
  %4 = alloca i32, align 4
  %5 = alloca ptr, align 8
  %6 = alloca ptr, align 8
  %7 = alloca i64, align 8
  %8 = alloca ptr, align 8
  %9 = alloca ptr, align 8
  %10 = alloca ptr, align 8
  %11 = alloca i64, align 8
  %12 = alloca i64, align 8
  %13 = alloca i64, align 8
  %14 = alloca i32, align 4
  %15 = alloca ptr, align 8
  %16 = alloca i64, align 8
  store ptr %0, ptr %5, align 8, !tbaa !33
  store ptr %1, ptr %6, align 8, !tbaa !40
  store i64 %2, ptr %7, align 8, !tbaa !29
  call void @llvm.lifetime.start.p0(i64 8, ptr %8) #9
  %17 = load ptr, ptr %5, align 8, !tbaa !33
  %18 = getelementptr inbounds nuw %struct.archive_write_filter, ptr %17, i32 0, i32 1
  %19 = load ptr, ptr %18, align 8, !tbaa !34
  store ptr %19, ptr %8, align 8, !tbaa !4
  call void @llvm.lifetime.start.p0(i64 8, ptr %9) #9
  %20 = load ptr, ptr %5, align 8, !tbaa !33
  %21 = getelementptr inbounds nuw %struct.archive_write_filter, ptr %20, i32 0, i32 9
  %22 = load ptr, ptr %21, align 8, !tbaa !63
  store ptr %22, ptr %9, align 8, !tbaa !56
  call void @llvm.lifetime.start.p0(i64 8, ptr %10) #9
  %23 = load ptr, ptr %6, align 8, !tbaa !40
  store ptr %23, ptr %10, align 8, !tbaa !24
  call void @llvm.lifetime.start.p0(i64 8, ptr %11) #9
  call void @llvm.lifetime.start.p0(i64 8, ptr %12) #9
  call void @llvm.lifetime.start.p0(i64 8, ptr %13) #9
  %24 = load i64, ptr %7, align 8, !tbaa !29
  store i64 %24, ptr %11, align 8, !tbaa !29
  %25 = load ptr, ptr %9, align 8, !tbaa !56
  %26 = getelementptr inbounds nuw %struct.archive_none, ptr %25, i32 0, i32 0
  %27 = load i64, ptr %26, align 8, !tbaa !58
  %28 = icmp eq i64 %27, 0
  br i1 %28, label %29, label %56

29:                                               ; preds = %3
  br label %30

30:                                               ; preds = %48, %29
  %31 = load i64, ptr %11, align 8, !tbaa !29
  %32 = icmp sgt i64 %31, 0
  br i1 %32, label %33, label %55

33:                                               ; preds = %30
  %34 = load ptr, ptr %8, align 8, !tbaa !4
  %35 = getelementptr inbounds nuw %struct.archive_write, ptr %34, i32 0, i32 7
  %36 = load ptr, ptr %35, align 8, !tbaa !45
  %37 = load ptr, ptr %8, align 8, !tbaa !4
  %38 = getelementptr inbounds nuw %struct.archive_write, ptr %37, i32 0, i32 0
  %39 = load ptr, ptr %8, align 8, !tbaa !4
  %40 = getelementptr inbounds nuw %struct.archive_write, ptr %39, i32 0, i32 10
  %41 = load ptr, ptr %40, align 8, !tbaa !49
  %42 = load ptr, ptr %10, align 8, !tbaa !24
  %43 = load i64, ptr %11, align 8, !tbaa !29
  %44 = call i64 %36(ptr noundef %38, ptr noundef %41, ptr noundef %42, i64 noundef %43)
  store i64 %44, ptr %13, align 8, !tbaa !29
  %45 = load i64, ptr %13, align 8, !tbaa !29
  %46 = icmp sle i64 %45, 0
  br i1 %46, label %47, label %48

47:                                               ; preds = %33
  store i32 -30, ptr %4, align 4
  store i32 1, ptr %14, align 4
  br label %208

48:                                               ; preds = %33
  %49 = load i64, ptr %13, align 8, !tbaa !29
  %50 = load i64, ptr %11, align 8, !tbaa !29
  %51 = sub nsw i64 %50, %49
  store i64 %51, ptr %11, align 8, !tbaa !29
  %52 = load i64, ptr %13, align 8, !tbaa !29
  %53 = load ptr, ptr %10, align 8, !tbaa !24
  %54 = getelementptr inbounds i8, ptr %53, i64 %52
  store ptr %54, ptr %10, align 8, !tbaa !24
  br label %30, !llvm.loop !64

55:                                               ; preds = %30
  store i32 0, ptr %4, align 4
  store i32 1, ptr %14, align 4
  br label %208

56:                                               ; preds = %3
  %57 = load ptr, ptr %9, align 8, !tbaa !56
  %58 = getelementptr inbounds nuw %struct.archive_none, ptr %57, i32 0, i32 1
  %59 = load i64, ptr %58, align 8, !tbaa !62
  %60 = load ptr, ptr %9, align 8, !tbaa !56
  %61 = getelementptr inbounds nuw %struct.archive_none, ptr %60, i32 0, i32 0
  %62 = load i64, ptr %61, align 8, !tbaa !58
  %63 = icmp ult i64 %59, %62
  br i1 %63, label %64, label %157

64:                                               ; preds = %56
  %65 = load i64, ptr %11, align 8, !tbaa !29
  %66 = load ptr, ptr %9, align 8, !tbaa !56
  %67 = getelementptr inbounds nuw %struct.archive_none, ptr %66, i32 0, i32 1
  %68 = load i64, ptr %67, align 8, !tbaa !62
  %69 = icmp ugt i64 %65, %68
  br i1 %69, label %70, label %74

70:                                               ; preds = %64
  %71 = load ptr, ptr %9, align 8, !tbaa !56
  %72 = getelementptr inbounds nuw %struct.archive_none, ptr %71, i32 0, i32 1
  %73 = load i64, ptr %72, align 8, !tbaa !62
  br label %76

74:                                               ; preds = %64
  %75 = load i64, ptr %11, align 8, !tbaa !29
  br label %76

76:                                               ; preds = %74, %70
  %77 = phi i64 [ %73, %70 ], [ %75, %74 ]
  store i64 %77, ptr %12, align 8, !tbaa !29
  %78 = load ptr, ptr %9, align 8, !tbaa !56
  %79 = getelementptr inbounds nuw %struct.archive_none, ptr %78, i32 0, i32 3
  %80 = load ptr, ptr %79, align 8, !tbaa !61
  %81 = load ptr, ptr %10, align 8, !tbaa !24
  %82 = load i64, ptr %12, align 8, !tbaa !29
  call void @llvm.memcpy.p0.p0.i64(ptr align 1 %80, ptr align 1 %81, i64 %82, i1 false)
  %83 = load i64, ptr %12, align 8, !tbaa !29
  %84 = load ptr, ptr %9, align 8, !tbaa !56
  %85 = getelementptr inbounds nuw %struct.archive_none, ptr %84, i32 0, i32 3
  %86 = load ptr, ptr %85, align 8, !tbaa !61
  %87 = getelementptr inbounds i8, ptr %86, i64 %83
  store ptr %87, ptr %85, align 8, !tbaa !61
  %88 = load i64, ptr %12, align 8, !tbaa !29
  %89 = load ptr, ptr %9, align 8, !tbaa !56
  %90 = getelementptr inbounds nuw %struct.archive_none, ptr %89, i32 0, i32 1
  %91 = load i64, ptr %90, align 8, !tbaa !62
  %92 = sub i64 %91, %88
  store i64 %92, ptr %90, align 8, !tbaa !62
  %93 = load i64, ptr %12, align 8, !tbaa !29
  %94 = load ptr, ptr %10, align 8, !tbaa !24
  %95 = getelementptr inbounds i8, ptr %94, i64 %93
  store ptr %95, ptr %10, align 8, !tbaa !24
  %96 = load i64, ptr %12, align 8, !tbaa !29
  %97 = load i64, ptr %11, align 8, !tbaa !29
  %98 = sub nsw i64 %97, %96
  store i64 %98, ptr %11, align 8, !tbaa !29
  %99 = load ptr, ptr %9, align 8, !tbaa !56
  %100 = getelementptr inbounds nuw %struct.archive_none, ptr %99, i32 0, i32 1
  %101 = load i64, ptr %100, align 8, !tbaa !62
  %102 = icmp eq i64 %101, 0
  br i1 %102, label %103, label %156

103:                                              ; preds = %76
  call void @llvm.lifetime.start.p0(i64 8, ptr %15) #9
  %104 = load ptr, ptr %9, align 8, !tbaa !56
  %105 = getelementptr inbounds nuw %struct.archive_none, ptr %104, i32 0, i32 2
  %106 = load ptr, ptr %105, align 8, !tbaa !60
  store ptr %106, ptr %15, align 8, !tbaa !24
  call void @llvm.lifetime.start.p0(i64 8, ptr %16) #9
  %107 = load ptr, ptr %9, align 8, !tbaa !56
  %108 = getelementptr inbounds nuw %struct.archive_none, ptr %107, i32 0, i32 0
  %109 = load i64, ptr %108, align 8, !tbaa !58
  store i64 %109, ptr %16, align 8, !tbaa !29
  br label %110

110:                                              ; preds = %135, %103
  %111 = load i64, ptr %16, align 8, !tbaa !29
  %112 = icmp ugt i64 %111, 0
  br i1 %112, label %113, label %142

113:                                              ; preds = %110
  %114 = load ptr, ptr %8, align 8, !tbaa !4
  %115 = getelementptr inbounds nuw %struct.archive_write, ptr %114, i32 0, i32 7
  %116 = load ptr, ptr %115, align 8, !tbaa !45
  %117 = load ptr, ptr %8, align 8, !tbaa !4
  %118 = getelementptr inbounds nuw %struct.archive_write, ptr %117, i32 0, i32 0
  %119 = load ptr, ptr %8, align 8, !tbaa !4
  %120 = getelementptr inbounds nuw %struct.archive_write, ptr %119, i32 0, i32 10
  %121 = load ptr, ptr %120, align 8, !tbaa !49
  %122 = load ptr, ptr %15, align 8, !tbaa !24
  %123 = load i64, ptr %16, align 8, !tbaa !29
  %124 = call i64 %116(ptr noundef %118, ptr noundef %121, ptr noundef %122, i64 noundef %123)
  store i64 %124, ptr %13, align 8, !tbaa !29
  %125 = load i64, ptr %13, align 8, !tbaa !29
  %126 = icmp sle i64 %125, 0
  br i1 %126, label %127, label %128

127:                                              ; preds = %113
  store i32 -30, ptr %4, align 4
  store i32 1, ptr %14, align 4
  br label %153

128:                                              ; preds = %113
  %129 = load i64, ptr %13, align 8, !tbaa !29
  %130 = load i64, ptr %16, align 8, !tbaa !29
  %131 = icmp ugt i64 %129, %130
  br i1 %131, label %132, label %135

132:                                              ; preds = %128
  %133 = load ptr, ptr %8, align 8, !tbaa !4
  %134 = getelementptr inbounds nuw %struct.archive_write, ptr %133, i32 0, i32 0
  call void (ptr, i32, ptr, ...) @archive_set_error(ptr noundef %134, i32 noundef -1, ptr noundef @.str.14)
  store i32 -30, ptr %4, align 4
  store i32 1, ptr %14, align 4
  br label %153

135:                                              ; preds = %128
  %136 = load i64, ptr %13, align 8, !tbaa !29
  %137 = load ptr, ptr %15, align 8, !tbaa !24
  %138 = getelementptr inbounds i8, ptr %137, i64 %136
  store ptr %138, ptr %15, align 8, !tbaa !24
  %139 = load i64, ptr %13, align 8, !tbaa !29
  %140 = load i64, ptr %16, align 8, !tbaa !29
  %141 = sub i64 %140, %139
  store i64 %141, ptr %16, align 8, !tbaa !29
  br label %110, !llvm.loop !65

142:                                              ; preds = %110
  %143 = load ptr, ptr %9, align 8, !tbaa !56
  %144 = getelementptr inbounds nuw %struct.archive_none, ptr %143, i32 0, i32 2
  %145 = load ptr, ptr %144, align 8, !tbaa !60
  %146 = load ptr, ptr %9, align 8, !tbaa !56
  %147 = getelementptr inbounds nuw %struct.archive_none, ptr %146, i32 0, i32 3
  store ptr %145, ptr %147, align 8, !tbaa !61
  %148 = load ptr, ptr %9, align 8, !tbaa !56
  %149 = getelementptr inbounds nuw %struct.archive_none, ptr %148, i32 0, i32 0
  %150 = load i64, ptr %149, align 8, !tbaa !58
  %151 = load ptr, ptr %9, align 8, !tbaa !56
  %152 = getelementptr inbounds nuw %struct.archive_none, ptr %151, i32 0, i32 1
  store i64 %150, ptr %152, align 8, !tbaa !62
  store i32 0, ptr %14, align 4
  br label %153

153:                                              ; preds = %142, %132, %127
  call void @llvm.lifetime.end.p0(i64 8, ptr %16) #9
  call void @llvm.lifetime.end.p0(i64 8, ptr %15) #9
  %154 = load i32, ptr %14, align 4
  switch i32 %154, label %208 [
    i32 0, label %155
  ]

155:                                              ; preds = %153
  br label %156

156:                                              ; preds = %155, %76
  br label %157

157:                                              ; preds = %156, %56
  br label %158

158:                                              ; preds = %181, %157
  %159 = load i64, ptr %11, align 8, !tbaa !29
  %160 = load ptr, ptr %9, align 8, !tbaa !56
  %161 = getelementptr inbounds nuw %struct.archive_none, ptr %160, i32 0, i32 0
  %162 = load i64, ptr %161, align 8, !tbaa !58
  %163 = icmp uge i64 %159, %162
  br i1 %163, label %164, label %188

164:                                              ; preds = %158
  %165 = load ptr, ptr %8, align 8, !tbaa !4
  %166 = getelementptr inbounds nuw %struct.archive_write, ptr %165, i32 0, i32 7
  %167 = load ptr, ptr %166, align 8, !tbaa !45
  %168 = load ptr, ptr %8, align 8, !tbaa !4
  %169 = getelementptr inbounds nuw %struct.archive_write, ptr %168, i32 0, i32 0
  %170 = load ptr, ptr %8, align 8, !tbaa !4
  %171 = getelementptr inbounds nuw %struct.archive_write, ptr %170, i32 0, i32 10
  %172 = load ptr, ptr %171, align 8, !tbaa !49
  %173 = load ptr, ptr %10, align 8, !tbaa !24
  %174 = load ptr, ptr %9, align 8, !tbaa !56
  %175 = getelementptr inbounds nuw %struct.archive_none, ptr %174, i32 0, i32 0
  %176 = load i64, ptr %175, align 8, !tbaa !58
  %177 = call i64 %167(ptr noundef %169, ptr noundef %172, ptr noundef %173, i64 noundef %176)
  store i64 %177, ptr %13, align 8, !tbaa !29
  %178 = load i64, ptr %13, align 8, !tbaa !29
  %179 = icmp sle i64 %178, 0
  br i1 %179, label %180, label %181

180:                                              ; preds = %164
  store i32 -30, ptr %4, align 4
  store i32 1, ptr %14, align 4
  br label %208

181:                                              ; preds = %164
  %182 = load i64, ptr %13, align 8, !tbaa !29
  %183 = load ptr, ptr %10, align 8, !tbaa !24
  %184 = getelementptr inbounds i8, ptr %183, i64 %182
  store ptr %184, ptr %10, align 8, !tbaa !24
  %185 = load i64, ptr %13, align 8, !tbaa !29
  %186 = load i64, ptr %11, align 8, !tbaa !29
  %187 = sub nsw i64 %186, %185
  store i64 %187, ptr %11, align 8, !tbaa !29
  br label %158, !llvm.loop !66

188:                                              ; preds = %158
  %189 = load i64, ptr %11, align 8, !tbaa !29
  %190 = icmp sgt i64 %189, 0
  br i1 %190, label %191, label %207

191:                                              ; preds = %188
  %192 = load ptr, ptr %9, align 8, !tbaa !56
  %193 = getelementptr inbounds nuw %struct.archive_none, ptr %192, i32 0, i32 3
  %194 = load ptr, ptr %193, align 8, !tbaa !61
  %195 = load ptr, ptr %10, align 8, !tbaa !24
  %196 = load i64, ptr %11, align 8, !tbaa !29
  call void @llvm.memcpy.p0.p0.i64(ptr align 1 %194, ptr align 1 %195, i64 %196, i1 false)
  %197 = load i64, ptr %11, align 8, !tbaa !29
  %198 = load ptr, ptr %9, align 8, !tbaa !56
  %199 = getelementptr inbounds nuw %struct.archive_none, ptr %198, i32 0, i32 3
  %200 = load ptr, ptr %199, align 8, !tbaa !61
  %201 = getelementptr inbounds i8, ptr %200, i64 %197
  store ptr %201, ptr %199, align 8, !tbaa !61
  %202 = load i64, ptr %11, align 8, !tbaa !29
  %203 = load ptr, ptr %9, align 8, !tbaa !56
  %204 = getelementptr inbounds nuw %struct.archive_none, ptr %203, i32 0, i32 1
  %205 = load i64, ptr %204, align 8, !tbaa !62
  %206 = sub i64 %205, %202
  store i64 %206, ptr %204, align 8, !tbaa !62
  br label %207

207:                                              ; preds = %191, %188
  store i32 0, ptr %4, align 4
  store i32 1, ptr %14, align 4
  br label %208

208:                                              ; preds = %207, %180, %153, %55, %47
  call void @llvm.lifetime.end.p0(i64 8, ptr %13) #9
  call void @llvm.lifetime.end.p0(i64 8, ptr %12) #9
  call void @llvm.lifetime.end.p0(i64 8, ptr %11) #9
  call void @llvm.lifetime.end.p0(i64 8, ptr %10) #9
  call void @llvm.lifetime.end.p0(i64 8, ptr %9) #9
  call void @llvm.lifetime.end.p0(i64 8, ptr %8) #9
  %209 = load i32, ptr %4, align 4
  ret i32 %209
}