; Function Attrs: nounwind uwtable
define internal range(i32 -30, 1) i32 @archive_write_client_write(ptr noundef readonly captures(none) %0, ptr noundef %1, i64 noundef %2) #3 {
  %4 = getelementptr inbounds nuw i8, ptr %0, i64 8
  %5 = load ptr, ptr %4, align 8, !tbaa !26
  %6 = getelementptr inbounds nuw i8, ptr %0, i64 72
  %7 = load ptr, ptr %6, align 8, !tbaa !55
  %8 = load i64, ptr %7, align 8, !tbaa !50
  %9 = icmp eq i64 %8, 0
  br i1 %9, label %.preheader, label %22

.preheader:                                       ; preds = %3
  %10 = getelementptr inbounds nuw i8, ptr %5, i64 192
  %11 = icmp sgt i64 %2, 0
  br i1 %11, label %.lr.ph107, label %.thread

.lr.ph107:                                        ; preds = %.preheader
  %12 = getelementptr inbounds nuw i8, ptr %5, i64 216
  br label %13

13:                                               ; preds = %.lr.ph107, %18
  %.078106 = phi i64 [ %2, %.lr.ph107 ], [ %19, %18 ]
  %.080105 = phi ptr [ %1, %.lr.ph107 ], [ %20, %18 ]
  %14 = load ptr, ptr %10, align 8, !tbaa !35
  %15 = load ptr, ptr %12, align 8, !tbaa !39
  %16 = tail call i64 %14(ptr noundef %5, ptr noundef %15, ptr noundef %.080105, i64 noundef %.078106) #13
  %17 = icmp slt i64 %16, 1
  br i1 %17, label %.thread, label %18

18:                                               ; preds = %13
  %19 = sub nsw i64 %.078106, %16
  %20 = getelementptr inbounds nuw i8, ptr %.080105, i64 %16
  %21 = icmp sgt i64 %19, 0
  br i1 %21, label %13, label %.thread, !llvm.loop !56

22:                                               ; preds = %3
  %23 = getelementptr inbounds nuw i8, ptr %7, i64 8
  %24 = load i64, ptr %23, align 8, !tbaa !54
  %25 = icmp ult i64 %24, %8
  br i1 %25, label %26, label %54

26:                                               ; preds = %22
  %. = tail call i64 @llvm.umin.i64(i64 %2, i64 %24)
  %27 = getelementptr inbounds nuw i8, ptr %7, i64 24
  %28 = load ptr, ptr %27, align 8, !tbaa !53
  tail call void @llvm.memcpy.p0.p0.i64(ptr align 1 %28, ptr align 1 %1, i64 %., i1 false)
  %29 = load ptr, ptr %27, align 8, !tbaa !53
  %30 = getelementptr inbounds i8, ptr %29, i64 %.
  store ptr %30, ptr %27, align 8, !tbaa !53
  %31 = load i64, ptr %23, align 8, !tbaa !54
  %32 = sub i64 %31, %.
  store i64 %32, ptr %23, align 8, !tbaa !54
  %33 = getelementptr inbounds i8, ptr %1, i64 %.
  %34 = sub nsw i64 %2, %.
  %35 = icmp eq i64 %31, %.
  %.pre114 = load i64, ptr %7, align 8, !tbaa !50
  br i1 %35, label %36, label %54

36:                                               ; preds = %26
  %37 = getelementptr inbounds nuw i8, ptr %7, i64 16
  %.not95 = icmp eq i64 %.pre114, 0
  br i1 %.not95, label %._crit_edge, label %.lr.ph

.lr.ph:                                           ; preds = %36
  %38 = load ptr, ptr %37, align 8, !tbaa !52
  %39 = getelementptr inbounds nuw i8, ptr %5, i64 192
  %40 = getelementptr inbounds nuw i8, ptr %5, i64 216
  br label %41

41:                                               ; preds = %.lr.ph, %49
  %.097 = phi i64 [ %.pre114, %.lr.ph ], [ %51, %49 ]
  %.07596 = phi ptr [ %38, %.lr.ph ], [ %50, %49 ]
  %42 = load ptr, ptr %39, align 8, !tbaa !35
  %43 = load ptr, ptr %40, align 8, !tbaa !39
  %44 = tail call i64 %42(ptr noundef %5, ptr noundef %43, ptr noundef %.07596, i64 noundef %.097) #13
  %45 = icmp slt i64 %44, 1
  br i1 %45, label %.thread, label %46

46:                                               ; preds = %41
  %47 = icmp ugt i64 %44, %.097
  br i1 %47, label %48, label %49

48:                                               ; preds = %46
  tail call void (ptr, i32, ptr, ...) @archive_set_error(ptr noundef nonnull %5, i32 noundef -1, ptr noundef nonnull @.str.14) #13
  br label %.thread

49:                                               ; preds = %46
  %50 = getelementptr inbounds nuw i8, ptr %.07596, i64 %44
  %51 = sub nuw i64 %.097, %44
  %.not = icmp eq i64 %51, 0
  br i1 %.not, label %._crit_edge.loopexit, label %41, !llvm.loop !57

._crit_edge.loopexit:                             ; preds = %49
  %.pre = load i64, ptr %7, align 8, !tbaa !50
  br label %._crit_edge

._crit_edge:                                      ; preds = %._crit_edge.loopexit, %36
  %52 = phi i64 [ %.pre, %._crit_edge.loopexit ], [ 0, %36 ]
  %53 = load ptr, ptr %37, align 8, !tbaa !52
  store ptr %53, ptr %27, align 8, !tbaa !53
  store i64 %52, ptr %23, align 8, !tbaa !54
  br label %54

54:                                               ; preds = %._crit_edge, %26, %22
  %55 = phi i64 [ %52, %._crit_edge ], [ %.pre114, %26 ], [ %8, %22 ]
  %.181 = phi ptr [ %33, %._crit_edge ], [ %33, %26 ], [ %1, %22 ]
  %.179 = phi i64 [ %34, %._crit_edge ], [ %34, %26 ], [ %2, %22 ]
  %.not9098 = icmp ult i64 %.179, %55
  br i1 %.not9098, label %._crit_edge103, label %.lr.ph102

.lr.ph102:                                        ; preds = %54
  %56 = getelementptr inbounds nuw i8, ptr %5, i64 192
  %57 = getelementptr inbounds nuw i8, ptr %5, i64 216
  br label %58

58:                                               ; preds = %.lr.ph102, %64
  %59 = phi i64 [ %55, %.lr.ph102 ], [ %67, %64 ]
  %.2100 = phi i64 [ %.179, %.lr.ph102 ], [ %66, %64 ]
  %.28299 = phi ptr [ %.181, %.lr.ph102 ], [ %65, %64 ]
  %60 = load ptr, ptr %56, align 8, !tbaa !35
  %61 = load ptr, ptr %57, align 8, !tbaa !39
  %62 = tail call i64 %60(ptr noundef %5, ptr noundef %61, ptr noundef %.28299, i64 noundef %59) #13
  %63 = icmp slt i64 %62, 1
  br i1 %63, label %.thread, label %64

64:                                               ; preds = %58
  %65 = getelementptr inbounds nuw i8, ptr %.28299, i64 %62
  %66 = sub nsw i64 %.2100, %62
  %67 = load i64, ptr %7, align 8, !tbaa !50
  %.not90 = icmp ult i64 %66, %67
  br i1 %.not90, label %._crit_edge103, label %58, !llvm.loop !58

._crit_edge103:                                   ; preds = %64, %54
  %.282.lcssa = phi ptr [ %.181, %54 ], [ %65, %64 ]
  %.2.lcssa = phi i64 [ %.179, %54 ], [ %66, %64 ]
  %68 = icmp sgt i64 %.2.lcssa, 0
  br i1 %68, label %69, label %.thread

69:                                               ; preds = %._crit_edge103
  %70 = getelementptr inbounds nuw i8, ptr %7, i64 24
  %71 = load ptr, ptr %70, align 8, !tbaa !53
  tail call void @llvm.memcpy.p0.p0.i64(ptr align 1 %71, ptr align 1 %.282.lcssa, i64 %.2.lcssa, i1 false)
  %72 = load ptr, ptr %70, align 8, !tbaa !53
  %73 = getelementptr inbounds nuw i8, ptr %72, i64 %.2.lcssa
  store ptr %73, ptr %70, align 8, !tbaa !53
  %74 = load i64, ptr %23, align 8, !tbaa !54
  %75 = sub i64 %74, %.2.lcssa
  store i64 %75, ptr %23, align 8, !tbaa !54
  br label %.thread

.thread:                                          ; preds = %41, %58, %13, %18, %.preheader, %48, %._crit_edge103, %69
  %.077 = phi i32 [ 0, %69 ], [ 0, %._crit_edge103 ], [ -30, %48 ], [ 0, %.preheader ], [ -30, %13 ], [ 0, %18 ], [ -30, %58 ], [ -30, %41 ]
  ret i32 %.077
}